; Function Attrs: mustprogress nofree norecurse nosync nounwind willreturn memory(argmem: read) uwtable
define hidden noundef i32 @_ZN3sat10lut_finder17get_clause_filterERKNS_6clauseE(ptr noundef nonnull readnone align 8 captures(none) dereferenceable(176) %0, ptr noundef nonnull readonly align 4 captures(address) dereferenceable(20) %1) local_unnamed_addr #5 align 2 {
  %3 = getelementptr inbounds nuw i8, ptr %1, i64 4
  %4 = load i32, ptr %3, align 4, !tbaa !39
  %5 = zext i32 %4 to i64
  %.idx = shl nuw nsw i64 %5, 2
  %6 = getelementptr inbounds nuw i8, ptr %1, i64 %.idx
  %.ptr12 = getelementptr inbounds nuw i8, ptr %6, i64 20
  %.not9 = icmp eq i32 %4, 0
  br i1 %.not9, label %._crit_edge, label %.lr.ph.preheader

.lr.ph.preheader:                                 ; preds = %2
  %.ptr = getelementptr inbounds nuw i8, ptr %1, i64 20
  br label %.lr.ph

._crit_edge:                                      ; preds = %.lr.ph, %2
  %.0.lcssa = phi i32 [ 0, %2 ], [ %11, %.lr.ph ]
  ret i32 %.0.lcssa

.lr.ph:                                           ; preds = %.lr.ph.preheader, %.lr.ph
  %.011 = phi i32 [ %11, %.lr.ph ], [ 0, %.lr.ph.preheader ]
  %.0810 = phi ptr [ %12, %.lr.ph ], [ %.ptr, %.lr.ph.preheader ]
  %7 = load i32, ptr %.0810, align 4, !tbaa !10
  %8 = lshr i32 %7, 1
  %9 = and i32 %8, 31
  %10 = shl nuw i32 1, %9
  %11 = or i32 %10, %.011
  %12 = getelementptr inbounds nuw i8, ptr %.0810, i64 4
  %.not = icmp eq ptr %12, %.ptr12
  br i1 %.not, label %._crit_edge, label %.lr.ph
}